target datalayout = "e-m:e-p270:32:32-p271:32:32-p272:64:64-i64:64-i128:128-f80:128-n8:16:32:64-S128"
target triple = "x86_64-pc-linux-gnu"

@.str.3 = private unnamed_addr constant [14 x i8] c"mbtcp.prot_id\00", align 1
@.str.24 = private unnamed_addr constant [17 x i8] c"modbus.func_code\00", align 1
@.str.113 = private unnamed_addr constant [12 x i8] c"modbus.data\00", align 1
@proto_register_modbus.ett = internal global [11 x ptr] [ptr @ett_mbtcp, ptr @ett_mbrtu, ptr @ett_modbus_hdr, ptr @ett_group_hdr, ptr @ett_events, ptr @ett_events_recv, ptr @ett_events_send, ptr @ett_device_id_objects, ptr @ett_device_id_object_items, ptr @ett_bit, ptr @ett_register], align 16
@.str.154 = private unnamed_addr constant [11 x i8] c"Modbus/TCP\00", align 1
@.str.155 = private unnamed_addr constant [6 x i8] c"mbtcp\00", align 1
@proto_mbtcp = internal global i32 0, align 4
@.str.156 = private unnamed_addr constant [11 x i8] c"Modbus/UDP\00", align 1
@.str.157 = private unnamed_addr constant [6 x i8] c"mbudp\00", align 1
@proto_mbudp = internal global i32 0, align 4
@.str.158 = private unnamed_addr constant [11 x i8] c"Modbus RTU\00", align 1
@.str.159 = private unnamed_addr constant [6 x i8] c"mbrtu\00", align 1
@proto_mbrtu = internal global i32 0, align 4
@.str.160 = private unnamed_addr constant [7 x i8] c"Modbus\00", align 1
@.str.161 = private unnamed_addr constant [7 x i8] c"modbus\00", align 1
@proto_modbus = internal global i32 0, align 4
@modbus_handle = internal global ptr null, align 8
@mbtcp_handle = internal global ptr null, align 8
@.str.162 = private unnamed_addr constant [6 x i8] c"mbtls\00", align 1
@mbtls_handle = internal global ptr null, align 8
@mbrtu_handle = internal global ptr null, align 8
@mbudp_handle = internal global ptr null, align 8
@.str.163 = private unnamed_addr constant [21 x i8] c"Modbus Function Code\00", align 1
@modbus_func_code_dissector_table = internal global ptr null, align 8
@.str.164 = private unnamed_addr constant [12 x i8] c"Modbus Data\00", align 1
@modbus_data_dissector_table = internal global ptr null, align 8
@.str.165 = private unnamed_addr constant [31 x i8] c"Modbus/TCP protocol identifier\00", align 1
@modbus_dissector_table = internal global ptr null, align 8
@.str.166 = private unnamed_addr constant [10 x i8] c"desegment\00", align 1
@.str.167 = private unnamed_addr constant [64 x i8] c"Desegment all Modbus RTU packets spanning multiple TCP segments\00", align 1
@.str.168 = private unnamed_addr constant [94 x i8] c"Whether the Modbus RTU dissector should desegment all messages spanning multiple TCP segments\00", align 1
@mbtcp_desegment = internal global i8 1, align 1
@mbrtu_desegment = internal global i8 1, align 1
@.str.169 = private unnamed_addr constant [17 x i8] c"crc_verification\00", align 1
@.str.170 = private unnamed_addr constant [13 x i8] c"Validate CRC\00", align 1
@.str.171 = private unnamed_addr constant [28 x i8] c"Whether to validate the CRC\00", align 1
@mbrtu_crc = internal global i8 0, align 1
@.str.172 = private unnamed_addr constant [21 x i8] c"mbus_register_format\00", align 1
@.str.173 = private unnamed_addr constant [30 x i8] c"Holding/Input Register Format\00", align 1
@.str.174 = private unnamed_addr constant [16 x i8] c"Register Format\00", align 1
@global_mbus_register_format = internal global i32 0, align 4
@.str.175 = private unnamed_addr constant [24 x i8] c"mbus_register_addr_type\00", align 1

; Function Attrs: null_pointer_is_valid sspstrong uwtable
define hidden void @proto_register_modbus() #0 {
  %1 = alloca ptr, align 8
  %2 = alloca ptr, align 8
  %3 = alloca ptr, align 8
  %4 = alloca ptr, align 8
  %5 = alloca ptr, align 8
  %6 = alloca ptr, align 8
  call void @llvm.lifetime.start.p0(i64 8, ptr %1) #10
  call void @llvm.lifetime.start.p0(i64 8, ptr %2) #10
  call void @llvm.lifetime.start.p0(i64 8, ptr %3) #10
  call void @llvm.lifetime.start.p0(i64 8, ptr %4) #10
  call void @llvm.lifetime.start.p0(i64 8, ptr %5) #10
  call void @llvm.lifetime.start.p0(i64 8, ptr %6) #10
  %7 = call i32 @proto_register_protocol(ptr noundef @.str.154, ptr noundef @.str.154, ptr noundef @.str.155)
  store i32 %7, ptr @proto_mbtcp, align 4
  %8 = call i32 @proto_register_protocol(ptr noundef @.str.156, ptr noundef @.str.156, ptr noundef @.str.157)
  store i32 %8, ptr @proto_mbudp, align 4
  %9 = call i32 @proto_register_protocol(ptr noundef @.str.158, ptr noundef @.str.158, ptr noundef @.str.159)
  store i32 %9, ptr @proto_mbrtu, align 4
  %10 = call i32 @proto_register_protocol(ptr noundef @.str.160, ptr noundef @.str.160, ptr noundef @.str.161)
  store i32 %10, ptr @proto_modbus, align 4
  %11 = load i32, ptr @proto_modbus, align 4
  %12 = call ptr @register_dissector(ptr noundef @.str.161, ptr noundef @dissect_modbus, i32 noundef %11)
  store ptr %12, ptr @modbus_handle, align 8
  %13 = load i32, ptr @proto_mbtcp, align 4
  %14 = call ptr @register_dissector(ptr noundef @.str.155, ptr noundef @dissect_mbtcp, i32 noundef %13)
  store ptr %14, ptr @mbtcp_handle, align 8
  %15 = load i32, ptr @proto_mbtcp, align 4
  %16 = call ptr @register_dissector(ptr noundef @.str.162, ptr noundef @dissect_mbtls, i32 noundef %15)
  store ptr %16, ptr @mbtls_handle, align 8
  %17 = load i32, ptr @proto_mbrtu, align 4
  %18 = call ptr @register_dissector(ptr noundef @.str.159, ptr noundef @dissect_mbrtu, i32 noundef %17)
  store ptr %18, ptr @mbrtu_handle, align 8
  %19 = load i32, ptr @proto_mbudp, align 4
  %20 = call ptr @register_dissector(ptr noundef @.str.157, ptr noundef @dissect_mbudp, i32 noundef %19)
  store ptr %20, ptr @mbudp_handle, align 8
  %21 = load i32, ptr @proto_modbus, align 4
  %22 = call ptr @register_dissector_table(ptr noundef @.str.24, ptr noundef @.str.163, i32 noundef %21, i32 noundef 4, i32 noundef 1)
  store ptr %22, ptr @modbus_func_code_dissector_table, align 8
  %23 = load i32, ptr @proto_modbus, align 4
  %24 = call ptr @register_dissector_table(ptr noundef @.str.113, ptr noundef @.str.164, i32 noundef %23, i32 noundef 26, i32 noundef 0)
  store ptr %24, ptr @modbus_data_dissector_table, align 8
  %25 = load i32, ptr @proto_mbtcp, align 4
  %26 = call ptr @register_dissector_table(ptr noundef @.str.3, ptr noundef @.str.165, i32 noundef %25, i32 noundef 5, i32 noundef 1)
  store ptr %26, ptr @modbus_dissector_table, align 8
  %27 = load i32, ptr @proto_mbtcp, align 4
  call void @proto_register_field_array(i32 noundef %27, ptr noundef @proto_register_modbus.mbtcp_hf, i32 noundef 4)
  %28 = load i32, ptr @proto_mbrtu, align 4
  call void @proto_register_field_array(i32 noundef %28, ptr noundef @proto_register_modbus.mbrtu_hf, i32 noundef 3)
  %29 = load i32, ptr @proto_modbus, align 4
  call void @proto_register_field_array(i32 noundef %29, ptr noundef @proto_register_modbus.hf, i32 noundef 68)
  call void @proto_register_subtree_array(ptr noundef @proto_register_modbus.ett, i32 noundef 11)
  %30 = load i32, ptr @proto_mbtcp, align 4
  %31 = call ptr @expert_register_protocol(i32 noundef %30)
  store ptr %31, ptr %4, align 8
  %32 = load ptr, ptr %4, align 8
  call void @expert_register_field_array(ptr noundef %32, ptr noundef @proto_register_modbus.mbtcp_ei, i32 noundef 1)
  %33 = load i32, ptr @proto_mbrtu, align 4
  %34 = call ptr @expert_register_protocol(i32 noundef %33)
  store ptr %34, ptr %5, align 8
  %35 = load ptr, ptr %5, align 8
  call void @expert_register_field_array(ptr noundef %35, ptr noundef @proto_register_modbus.mbrtu_ei, i32 noundef 1)
  %36 = load i32, ptr @proto_modbus, align 4
  %37 = call ptr @expert_register_protocol(i32 noundef %36)
  store ptr %37, ptr %6, align 8
  %38 = load ptr, ptr %6, align 8
  call void @expert_register_field_array(ptr noundef %38, ptr noundef @proto_register_modbus.ei, i32 noundef 1)
  %39 = load i32, ptr @proto_mbtcp, align 4
  %40 = call ptr @prefs_register_protocol(i32 noundef %39, ptr noundef @apply_mbtcp_prefs)
  store ptr %40, ptr %1, align 8
  %41 = load i32, ptr @proto_mbrtu, align 4
  %42 = call ptr @prefs_register_protocol(i32 noundef %41, ptr noundef @apply_mbrtu_prefs)
  store ptr %42, ptr %2, align 8
  %43 = load i32, ptr @proto_modbus, align 4
  %44 = call ptr @prefs_register_protocol(i32 noundef %43, ptr noundef null)
  store ptr %44, ptr %3, align 8
  %45 = load ptr, ptr %1, align 8
  call void @prefs_register_bool_preference(ptr noundef %45, ptr noundef @.str.166, ptr noundef @.str.167, ptr noundef @.str.168, ptr noundef @mbtcp_desegment)
  %46 = load ptr, ptr %2, align 8
  call void @prefs_register_bool_preference(ptr noundef %46, ptr noundef @.str.166, ptr noundef @.str.167, ptr noundef @.str.168, ptr noundef @mbrtu_desegment)
  %47 = load ptr, ptr %2, align 8
  call void @prefs_register_bool_preference(ptr noundef %47, ptr noundef @.str.169, ptr noundef @.str.170, ptr noundef @.str.171, ptr noundef @mbrtu_crc)
  %48 = load ptr, ptr %3, align 8
  call void @prefs_register_enum_preference(ptr noundef %48, ptr noundef @.str.172, ptr noundef @.str.173, ptr noundef @.str.174, ptr noundef @global_mbus_register_format, ptr noundef @mbus_register_format, i1 noundef zeroext false)
  %49 = load ptr, ptr %1, align 8
  call void @prefs_register_obsolete_preference(ptr noundef %49, ptr noundef @.str.175)
  %50 = load ptr, ptr %1, align 8
  call void @prefs_register_obsolete_preference(ptr noundef %50, ptr noundef @.str.172)
  %51 = load ptr, ptr %2, align 8
  call void @prefs_register_obsolete_preference(ptr noundef %51, ptr noundef @.str.175)
  %52 = load ptr, ptr %2, align 8
  call void @prefs_register_obsolete_preference(ptr noundef %52, ptr noundef @.str.172)
  call void @llvm.lifetime.end.p0(i64 8, ptr %6) #10
  call void @llvm.lifetime.end.p0(i64 8, ptr %5) #10
  call void @llvm.lifetime.end.p0(i64 8, ptr %4) #10
  call void @llvm.lifetime.end.p0(i64 8, ptr %3) #10
  call void @llvm.lifetime.end.p0(i64 8, ptr %2) #10
  call void @llvm.lifetime.end.p0(i64 8, ptr %1) #10
  ret void
}