; Function Attrs: null_pointer_is_valid sspstrong uwtable
define hidden void @proto_register_modbus() local_unnamed_addr #0 {
  %1 = tail call i32 @proto_register_protocol(ptr noundef nonnull @.str.154, ptr noundef nonnull @.str.154, ptr noundef nonnull @.str.155)
  store i32 %1, ptr @proto_mbtcp, align 4
  %2 = tail call i32 @proto_register_protocol(ptr noundef nonnull @.str.156, ptr noundef nonnull @.str.156, ptr noundef nonnull @.str.157)
  store i32 %2, ptr @proto_mbudp, align 4
  %3 = tail call i32 @proto_register_protocol(ptr noundef nonnull @.str.158, ptr noundef nonnull @.str.158, ptr noundef nonnull @.str.159)
  store i32 %3, ptr @proto_mbrtu, align 4
  %4 = tail call i32 @proto_register_protocol(ptr noundef nonnull @.str.160, ptr noundef nonnull @.str.160, ptr noundef nonnull @.str.161)
  store i32 %4, ptr @proto_modbus, align 4
  %5 = tail call ptr @register_dissector(ptr noundef nonnull @.str.161, ptr noundef nonnull @dissect_modbus, i32 noundef %4)
  store ptr %5, ptr @modbus_handle, align 8
  %6 = load i32, ptr @proto_mbtcp, align 4
  %7 = tail call ptr @register_dissector(ptr noundef nonnull @.str.155, ptr noundef nonnull @dissect_mbtcp, i32 noundef %6)
  store ptr %7, ptr @mbtcp_handle, align 8
  %8 = load i32, ptr @proto_mbtcp, align 4
  %9 = tail call ptr @register_dissector(ptr noundef nonnull @.str.162, ptr noundef nonnull @dissect_mbtls, i32 noundef %8)
  store ptr %9, ptr @mbtls_handle, align 8
  %10 = load i32, ptr @proto_mbrtu, align 4
  %11 = tail call ptr @register_dissector(ptr noundef nonnull @.str.159, ptr noundef nonnull @dissect_mbrtu, i32 noundef %10)
  store ptr %11, ptr @mbrtu_handle, align 8
  %12 = load i32, ptr @proto_mbudp, align 4
  %13 = tail call ptr @register_dissector(ptr noundef nonnull @.str.157, ptr noundef nonnull @dissect_mbudp, i32 noundef %12)
  store ptr %13, ptr @mbudp_handle, align 8
  %14 = load i32, ptr @proto_modbus, align 4
  %15 = tail call ptr @register_dissector_table(ptr noundef nonnull @.str.24, ptr noundef nonnull @.str.163, i32 noundef %14, i32 noundef 4, i32 noundef 1)
  store ptr %15, ptr @modbus_func_code_dissector_table, align 8
  %16 = load i32, ptr @proto_modbus, align 4
  %17 = tail call ptr @register_dissector_table(ptr noundef nonnull @.str.113, ptr noundef nonnull @.str.164, i32 noundef %16, i32 noundef 26, i32 noundef 0)
  store ptr %17, ptr @modbus_data_dissector_table, align 8
  %18 = load i32, ptr @proto_mbtcp, align 4
  %19 = tail call ptr @register_dissector_table(ptr noundef nonnull @.str.3, ptr noundef nonnull @.str.165, i32 noundef %18, i32 noundef 5, i32 noundef 1)
  store ptr %19, ptr @modbus_dissector_table, align 8
  %20 = load i32, ptr @proto_mbtcp, align 4
  tail call void @proto_register_field_array(i32 noundef %20, ptr noundef nonnull @proto_register_modbus.mbtcp_hf, i32 noundef 4)
  %21 = load i32, ptr @proto_mbrtu, align 4
  tail call void @proto_register_field_array(i32 noundef %21, ptr noundef nonnull @proto_register_modbus.mbrtu_hf, i32 noundef 3)
  %22 = load i32, ptr @proto_modbus, align 4
  tail call void @proto_register_field_array(i32 noundef %22, ptr noundef nonnull @proto_register_modbus.hf, i32 noundef 68)
  tail call void @proto_register_subtree_array(ptr noundef nonnull @proto_register_modbus.ett, i32 noundef 11)
  %23 = load i32, ptr @proto_mbtcp, align 4
  %24 = tail call ptr @expert_register_protocol(i32 noundef %23)
  tail call void @expert_register_field_array(ptr noundef %24, ptr noundef nonnull @proto_register_modbus.mbtcp_ei, i32 noundef 1)
  %25 = load i32, ptr @proto_mbrtu, align 4
  %26 = tail call ptr @expert_register_protocol(i32 noundef %25)
  tail call void @expert_register_field_array(ptr noundef %26, ptr noundef nonnull @proto_register_modbus.mbrtu_ei, i32 noundef 1)
  %27 = load i32, ptr @proto_modbus, align 4
  %28 = tail call ptr @expert_register_protocol(i32 noundef %27)
  tail call void @expert_register_field_array(ptr noundef %28, ptr noundef nonnull @proto_register_modbus.ei, i32 noundef 1)
  %29 = load i32, ptr @proto_mbtcp, align 4
  %30 = tail call ptr @prefs_register_protocol(i32 noundef %29, ptr noundef nonnull @apply_mbtcp_prefs)
  %31 = load i32, ptr @proto_mbrtu, align 4
  %32 = tail call ptr @prefs_register_protocol(i32 noundef %31, ptr noundef nonnull @apply_mbrtu_prefs)
  %33 = load i32, ptr @proto_modbus, align 4
  %34 = tail call ptr @prefs_register_protocol(i32 noundef %33, ptr noundef null)
  tail call void @prefs_register_bool_preference(ptr noundef %30, ptr noundef nonnull @.str.166, ptr noundef nonnull @.str.167, ptr noundef nonnull @.str.168, ptr noundef nonnull @mbtcp_desegment)
  tail call void @prefs_register_bool_preference(ptr noundef %32, ptr noundef nonnull @.str.166, ptr noundef nonnull @.str.167, ptr noundef nonnull @.str.168, ptr noundef nonnull @mbrtu_desegment)
  tail call void @prefs_register_bool_preference(ptr noundef %32, ptr noundef nonnull @.str.169, ptr noundef nonnull @.str.170, ptr noundef nonnull @.str.171, ptr noundef nonnull @mbrtu_crc)
  tail call void @prefs_register_enum_preference(ptr noundef %34, ptr noundef nonnull @.str.172, ptr noundef nonnull @.str.173, ptr noundef nonnull @.str.174, ptr noundef nonnull @global_mbus_register_format, ptr noundef nonnull @mbus_register_format, i1 noundef zeroext false)
  tail call void @prefs_register_obsolete_preference(ptr noundef %30, ptr noundef nonnull @.str.175)
  tail call void @prefs_register_obsolete_preference(ptr noundef %30, ptr noundef nonnull @.str.172)
  tail call void @prefs_register_obsolete_preference(ptr noundef %32, ptr noundef nonnull @.str.175)
  tail call void @prefs_register_obsolete_preference(ptr noundef %32, ptr noundef nonnull @.str.172)
  ret void
}